; ModuleID = '49/1142.c'
source_filename = "49/1142.c"
target datalayout = "e-m:e-p270:32:32-p271:32:32-p272:64:64-i64:64-f80:128-n8:16:32:64-S128"
target triple = "x86_64-pc-linux-gnu"

@.str = private unnamed_addr constant [3 x i8] c"%s\00", align 1
@.str.1 = private unnamed_addr constant [4 x i8] c"%s\0A\00", align 1

; Function Attrs: noinline nounwind uwtable
define dso_local i32 @main() #0 {
  %1 = alloca i32, align 4
  %2 = alloca [505 x i8], align 16
  %3 = alloca [505 x i8], align 16
  %4 = alloca [505 x i8], align 16
  %5 = alloca i32, align 4
  %6 = alloca i32, align 4
  %7 = alloca i32, align 4
  %8 = alloca i32, align 4
  %9 = alloca i32, align 4
  store i32 0, i32* %1, align 4
  store i32 0, i32* %9, align 4
  %10 = getelementptr inbounds [505 x i8], [505 x i8]* %2, i64 0, i64 0
  %11 = call i32 (i8*, ...) @__isoc99_scanf(i8* getelementptr inbounds ([3 x i8], [3 x i8]* @.str, i64 0, i64 0), i8* %10)
  %12 = getelementptr inbounds [505 x i8], [505 x i8]* %2, i64 0, i64 0
  %13 = call i64 @strlen(i8* %12) #3
  %14 = trunc i64 %13 to i32
  store i32 %14, i32* %7, align 4
  store i32 2, i32* %5, align 4
  br label %15

15:                                               ; preds = %88, %0
  %16 = load i32, i32* %5, align 4
  %17 = load i32, i32* %7, align 4
  %18 = icmp sle i32 %16, %17
  br i1 %18, label %19, label %91

19:                                               ; preds = %15
  store i32 0, i32* %6, align 4
  br label %20

20:                                               ; preds = %84, %19
  %21 = load i32, i32* %6, align 4
  %22 = load i32, i32* %7, align 4
  %23 = load i32, i32* %5, align 4
  %24 = sub nsw i32 %22, %23
  %25 = icmp sle i32 %21, %24
  br i1 %25, label %26, label %87

26:                                               ; preds = %20
  %27 = load i32, i32* %6, align 4
  store i32 %27, i32* %8, align 4
  br label %28

28:                                               ; preds = %45, %26
  %29 = load i32, i32* %8, align 4
  %30 = load i32, i32* %6, align 4
  %31 = load i32, i32* %5, align 4
  %32 = add nsw i32 %30, %31
  %33 = sub nsw i32 %32, 1
  %34 = icmp sle i32 %29, %33
  br i1 %34, label %35, label %48

35:                                               ; preds = %28
  %36 = load i32, i32* %8, align 4
  %37 = sext i32 %36 to i64
  %38 = getelementptr inbounds [505 x i8], [505 x i8]* %2, i64 0, i64 %37
  %39 = load i8, i8* %38, align 1
  %40 = load i32, i32* %8, align 4
  %41 = load i32, i32* %6, align 4
  %42 = sub nsw i32 %40, %41
  %43 = sext i32 %42 to i64
  %44 = getelementptr inbounds [505 x i8], [505 x i8]* %3, i64 0, i64 %43
  store i8 %39, i8* %44, align 1
  br label %45

45:                                               ; preds = %35
  %46 = load i32, i32* %8, align 4
  %47 = add nsw i32 %46, 1
  store i32 %47, i32* %8, align 4
  br label %28

48:                                               ; preds = %28
  %49 = load i32, i32* %8, align 4
  %50 = load i32, i32* %6, align 4
  %51 = sub nsw i32 %49, %50
  %52 = sext i32 %51 to i64
  %53 = getelementptr inbounds [505 x i8], [505 x i8]* %3, i64 0, i64 %52
  store i8 0, i8* %53, align 1
  store i32 0, i32* %8, align 4
  br label %54

54:                                               ; preds = %69, %48
  %55 = load i32, i32* %8, align 4
  %56 = load i32, i32* %5, align 4
  %57 = icmp slt i32 %55, %56
  br i1 %57, label %58, label %72

58:                                               ; preds = %54
  %59 = load i32, i32* %8, align 4
  %60 = sext i32 %59 to i64
  %61 = getelementptr inbounds [505 x i8], [505 x i8]* %3, i64 0, i64 %60
  %62 = load i8, i8* %61, align 1
  %63 = load i32, i32* %5, align 4
  %64 = sub nsw i32 %63, 1
  %65 = load i32, i32* %8, align 4
  %66 = sub nsw i32 %64, %65
  %67 = sext i32 %66 to i64
  %68 = getelementptr inbounds [505 x i8], [505 x i8]* %4, i64 0, i64 %67
  store i8 %62, i8* %68, align 1
  br label %69

69:                                               ; preds = %58
  %70 = load i32, i32* %8, align 4
  %71 = add nsw i32 %70, 1
  store i32 %71, i32* %8, align 4
  br label %54

72:                                               ; preds = %54
  %73 = load i32, i32* %5, align 4
  %74 = sext i32 %73 to i64
  %75 = getelementptr inbounds [505 x i8], [505 x i8]* %4, i64 0, i64 %74
  store i8 0, i8* %75, align 1
  %76 = getelementptr inbounds [505 x i8], [505 x i8]* %4, i64 0, i64 0
  %77 = getelementptr inbounds [505 x i8], [505 x i8]* %3, i64 0, i64 0
  %78 = call i32 @strcmp(i8* %76, i8* %77) #3
  %79 = icmp eq i32 %78, 0
  br i1 %79, label %80, label %83

80:                                               ; preds = %72
  %81 = getelementptr inbounds [505 x i8], [505 x i8]* %3, i64 0, i64 0
  %82 = call i32 (i8*, ...) @printf(i8* getelementptr inbounds ([4 x i8], [4 x i8]* @.str.1, i64 0, i64 0), i8* %81)
  br label %83

83:                                               ; preds = %80, %72
  br label %84

84:                                               ; preds = %83
  %85 = load i32, i32* %6, align 4
  %86 = add nsw i32 %85, 1
  store i32 %86, i32* %6, align 4
  br label %20

87:                                               ; preds = %20
  br label %88

88:                                               ; preds = %87
  %89 = load i32, i32* %5, align 4
  %90 = add nsw i32 %89, 1
  store i32 %90, i32* %5, align 4
  br label %15

91:                                               ; preds = %15
  ret i32 0
}

declare dso_local i32 @__isoc99_scanf(i8*, ...) #1

; Function Attrs: nounwind readonly
declare dso_local i64 @strlen(i8*) #2

; Function Attrs: nounwind readonly
declare dso_local i32 @strcmp(i8*, i8*) #2

declare dso_local i32 @printf(i8*, ...) #1


!llvm.module.flags = !{!0}
!llvm.ident = !{!1}

!0 = !{i32 1, !"wchar_size", i32 4}
!1 = !{!"clang version 10.0.0-4ubuntu1 "}
